; ModuleID = '43/1297.c'
source_filename = "43/1297.c"
target datalayout = "e-m:e-p270:32:32-p271:32:32-p272:64:64-i64:64-f80:128-n8:16:32:64-S128"
target triple = "x86_64-pc-linux-gnu"

@.str = private unnamed_addr constant [3 x i8] c"%d\00", align 1
@.str.1 = private unnamed_addr constant [7 x i8] c"%d %d\0A\00", align 1

; Function Attrs: noinline nounwind uwtable
define dso_local i32 @main() #0 {
  %1 = alloca i32, align 4
  %2 = alloca i32, align 4
  %3 = alloca [100 x i32], align 16
  %4 = alloca i32, align 4
  %5 = alloca i32, align 4
  %6 = alloca i32, align 4
  store i32 0, i32* %1, align 4
  %7 = call i32 (i8*, ...) @__isoc99_scanf(i8* getelementptr inbounds ([3 x i8], [3 x i8]* @.str, i64 0, i64 0), i32* %2)
  %8 = bitcast [100 x i32]* %3 to i8*
  call void @llvm.memset.p0i8.i64(i8* align 16 %8, i8 0, i64 400, i1 false)
  %9 = getelementptr inbounds [100 x i32], [100 x i32]* %3, i64 0, i64 1
  store i32 1, i32* %9, align 4
  %10 = getelementptr inbounds [100 x i32], [100 x i32]* %3, i64 0, i64 0
  store i32 1, i32* %10, align 16
  store i32 2, i32* %4, align 4
  br label %11

11:                                               ; preds = %39, %0
  %12 = load i32, i32* %4, align 4
  %13 = load i32, i32* %2, align 4
  %14 = icmp sle i32 %12, %13
  br i1 %14, label %15, label %42

15:                                               ; preds = %11
  %16 = load i32, i32* %4, align 4
  %17 = sext i32 %16 to i64
  %18 = getelementptr inbounds [100 x i32], [100 x i32]* %3, i64 0, i64 %17
  %19 = load i32, i32* %18, align 4
  %20 = icmp eq i32 %19, 0
  br i1 %20, label %21, label %38

21:                                               ; preds = %15
  store i32 2, i32* %5, align 4
  br label %22

22:                                               ; preds = %34, %21
  %23 = load i32, i32* %5, align 4
  %24 = load i32, i32* %2, align 4
  %25 = load i32, i32* %4, align 4
  %26 = sdiv i32 %24, %25
  %27 = icmp sle i32 %23, %26
  br i1 %27, label %28, label %37

28:                                               ; preds = %22
  %29 = load i32, i32* %4, align 4
  %30 = load i32, i32* %5, align 4
  %31 = mul nsw i32 %29, %30
  %32 = sext i32 %31 to i64
  %33 = getelementptr inbounds [100 x i32], [100 x i32]* %3, i64 0, i64 %32
  store i32 1, i32* %33, align 4
  br label %34

34:                                               ; preds = %28
  %35 = load i32, i32* %5, align 4
  %36 = add nsw i32 %35, 1
  store i32 %36, i32* %5, align 4
  br label %22

37:                                               ; preds = %22
  br label %38

38:                                               ; preds = %37, %15
  br label %39

39:                                               ; preds = %38
  %40 = load i32, i32* %4, align 4
  %41 = add nsw i32 %40, 1
  store i32 %41, i32* %4, align 4
  br label %11

42:                                               ; preds = %11
  store i32 3, i32* %6, align 4
  br label %43

43:                                               ; preds = %68, %42
  %44 = load i32, i32* %6, align 4
  %45 = load i32, i32* %2, align 4
  %46 = sdiv i32 %45, 2
  %47 = icmp sle i32 %44, %46
  br i1 %47, label %48, label %71

48:                                               ; preds = %43
  %49 = load i32, i32* %6, align 4
  %50 = sext i32 %49 to i64
  %51 = getelementptr inbounds [100 x i32], [100 x i32]* %3, i64 0, i64 %50
  %52 = load i32, i32* %51, align 4
  %53 = load i32, i32* %2, align 4
  %54 = load i32, i32* %6, align 4
  %55 = sub nsw i32 %53, %54
  %56 = sext i32 %55 to i64
  %57 = getelementptr inbounds [100 x i32], [100 x i32]* %3, i64 0, i64 %56
  %58 = load i32, i32* %57, align 4
  %59 = add nsw i32 %52, %58
  %60 = icmp eq i32 %59, 0
  br i1 %60, label %61, label %67

61:                                               ; preds = %48
  %62 = load i32, i32* %6, align 4
  %63 = load i32, i32* %2, align 4
  %64 = load i32, i32* %6, align 4
  %65 = sub nsw i32 %63, %64
  %66 = call i32 (i8*, ...) @printf(i8* getelementptr inbounds ([7 x i8], [7 x i8]* @.str.1, i64 0, i64 0), i32 %62, i32 %65)
  br label %67

67:                                               ; preds = %61, %48
  br label %68

68:                                               ; preds = %67
  %69 = load i32, i32* %6, align 4
  %70 = add nsw i32 %69, 2
  store i32 %70, i32* %6, align 4
  br label %43

71:                                               ; preds = %43
  ret i32 0
}

declare dso_local i32 @__isoc99_scanf(i8*, ...) #1

; Function Attrs: argmemonly nounwind willreturn
declare void @llvm.memset.p0i8.i64(i8* nocapture writeonly, i8, i64, i1 immarg) #2

declare dso_local i32 @printf(i8*, ...) #1


!llvm.module.flags = !{!0}
!llvm.ident = !{!1}

!0 = !{i32 1, !"wchar_size", i32 4}
!1 = !{!"clang version 10.0.0-4ubuntu1 "}
